target datalayout = "e-m:e-p270:32:32-p271:32:32-p272:64:64-i64:64-i128:128-f80:128-n8:16:32:64-S128"
target triple = "x86_64-unknown-linux-gnu"

%struct.buf_writer_t = type { ptr, ptr, ptr, i64, i64, i8 }

; Function Attrs: nounwind uwtable
define hidden void @buf_writer_flush(ptr noundef %buf_writer) #0 {
entry:
  %buf_writer.addr = alloca ptr, align 8
  store ptr %buf_writer, ptr %buf_writer.addr, align 8
  %0 = load ptr, ptr %buf_writer.addr, align 8
  call void @buf_writer_assert(ptr noundef %0)
  %1 = load ptr, ptr %buf_writer.addr, align 8
  %buf = getelementptr inbounds %struct.buf_writer_t, ptr %1, i32 0, i32 2
  %2 = load ptr, ptr %buf, align 8
  %cmp = icmp eq ptr %2, null
  br i1 %cmp, label %if.then, label %if.end

if.then:                                          ; preds = %entry
  br label %return

if.end:                                           ; preds = %entry
  %3 = load ptr, ptr %buf_writer.addr, align 8
  %buf1 = getelementptr inbounds %struct.buf_writer_t, ptr %3, i32 0, i32 2
  %4 = load ptr, ptr %buf1, align 8
  %5 = load ptr, ptr %buf_writer.addr, align 8
  %buf_end = getelementptr inbounds %struct.buf_writer_t, ptr %5, i32 0, i32 4
  %6 = load i64, ptr %buf_end, align 8
  %arrayidx = getelementptr inbounds i8, ptr %4, i64 %6
  store i8 0, ptr %arrayidx, align 1
  %7 = load ptr, ptr %buf_writer.addr, align 8
  %write_cb = getelementptr inbounds %struct.buf_writer_t, ptr %7, i32 0, i32 0
  %8 = load ptr, ptr %write_cb, align 8
  %9 = load ptr, ptr %buf_writer.addr, align 8
  %cbopaque = getelementptr inbounds %struct.buf_writer_t, ptr %9, i32 0, i32 1
  %10 = load ptr, ptr %cbopaque, align 8
  %11 = load ptr, ptr %buf_writer.addr, align 8
  %buf2 = getelementptr inbounds %struct.buf_writer_t, ptr %11, i32 0, i32 2
  %12 = load ptr, ptr %buf2, align 8
  call void %8(ptr noundef %10, ptr noundef %12)
  %13 = load ptr, ptr %buf_writer.addr, align 8
  %buf_end3 = getelementptr inbounds %struct.buf_writer_t, ptr %13, i32 0, i32 4
  store i64 0, ptr %buf_end3, align 8
  %14 = load ptr, ptr %buf_writer.addr, align 8
  call void @buf_writer_assert(ptr noundef %14)
  br label %return

return:                                           ; preds = %if.end, %if.then
  ret void
}

; Function Attrs: nounwind uwtable
define internal void @buf_writer_assert(ptr noundef %buf_writer) #0 {
entry:
  %buf_writer.addr = alloca ptr, align 8
  store ptr %buf_writer, ptr %buf_writer.addr, align 8
  br label %do.body

do.body:                                          ; preds = %entry
  br label %do.end

do.end:                                           ; preds = %do.body
  br label %do.body1

do.body1:                                         ; preds = %do.end
  br label %do.end2

do.end2:                                          ; preds = %do.body1
  %0 = load ptr, ptr %buf_writer.addr, align 8
  %buf = getelementptr inbounds %struct.buf_writer_t, ptr %0, i32 0, i32 2
  %1 = load ptr, ptr %buf, align 8
  %cmp = icmp ne ptr %1, null
  br i1 %cmp, label %if.then, label %if.else

if.then:                                          ; preds = %do.end2
  br label %do.body3

do.body3:                                         ; preds = %if.then
  br label %do.end4

do.end4:                                          ; preds = %do.body3
  br label %if.end

if.else:                                          ; preds = %do.end2
  br label %do.body5

do.body5:                                         ; preds = %if.else
  br label %do.end6

do.end6:                                          ; preds = %do.body5
  br label %do.body7

do.body7:                                         ; preds = %do.end6
  br label %do.end8

do.end8:                                          ; preds = %do.body7
  br label %if.end

if.end:                                           ; preds = %do.end8, %do.end4
  br label %do.body9

do.body9:                                         ; preds = %if.end
  br label %do.end10

do.end10:                                         ; preds = %do.body9
  ret void
}

; Function Attrs: nounwind uwtable
define hidden void @buf_writer_cb(ptr noundef %buf_writer_arg, ptr noundef %s) #0 {
entry:
  %buf_writer_arg.addr = alloca ptr, align 8
  %s.addr = alloca ptr, align 8
  %buf_writer = alloca ptr, align 8
  %i = alloca i64, align 8
  %slen = alloca i64, align 8
  %n = alloca i64, align 8
  %s_remain = alloca i64, align 8
  %buf_remain = alloca i64, align 8
  store ptr %buf_writer_arg, ptr %buf_writer_arg.addr, align 8
  store ptr %s, ptr %s.addr, align 8
  %0 = load ptr, ptr %buf_writer_arg.addr, align 8
  store ptr %0, ptr %buf_writer, align 8
  %1 = load ptr, ptr %buf_writer, align 8
  call void @buf_writer_assert(ptr noundef %1)
  %2 = load ptr, ptr %buf_writer, align 8
  %buf = getelementptr inbounds %struct.buf_writer_t, ptr %2, i32 0, i32 2
  %3 = load ptr, ptr %buf, align 8
  %cmp = icmp eq ptr %3, null
  br i1 %cmp, label %if.then, label %if.end

if.then:                                          ; preds = %entry
  %4 = load ptr, ptr %buf_writer, align 8
  %write_cb = getelementptr inbounds %struct.buf_writer_t, ptr %4, i32 0, i32 0
  %5 = load ptr, ptr %write_cb, align 8
  %6 = load ptr, ptr %buf_writer, align 8
  %cbopaque = getelementptr inbounds %struct.buf_writer_t, ptr %6, i32 0, i32 1
  %7 = load ptr, ptr %cbopaque, align 8
  %8 = load ptr, ptr %s.addr, align 8
  call void %5(ptr noundef %7, ptr noundef %8)
  br label %do.end

if.end:                                           ; preds = %entry
  store i64 0, ptr %i, align 8
  %9 = load ptr, ptr %s.addr, align 8
  %call = call i64 @strlen(ptr noundef %9) #9
  store i64 %call, ptr %slen, align 8
  br label %for.cond

for.cond:                                         ; preds = %for.inc, %if.end
  %10 = load i64, ptr %i, align 8
  %11 = load i64, ptr %slen, align 8
  %cmp1 = icmp ult i64 %10, %11
  br i1 %cmp1, label %for.body, label %for.end

for.body:                                         ; preds = %for.cond
  %12 = load ptr, ptr %buf_writer, align 8
  %buf_end = getelementptr inbounds %struct.buf_writer_t, ptr %12, i32 0, i32 4
  %13 = load i64, ptr %buf_end, align 8
  %14 = load ptr, ptr %buf_writer, align 8
  %buf_size = getelementptr inbounds %struct.buf_writer_t, ptr %14, i32 0, i32 3
  %15 = load i64, ptr %buf_size, align 8
  %cmp2 = icmp eq i64 %13, %15
  br i1 %cmp2, label %if.then3, label %if.end4

if.then3:                                         ; preds = %for.body
  %16 = load ptr, ptr %buf_writer, align 8
  call void @buf_writer_flush(ptr noundef %16)
  br label %if.end4

if.end4:                                          ; preds = %if.then3, %for.body
  %17 = load i64, ptr %slen, align 8
  %18 = load i64, ptr %i, align 8
  %sub = sub i64 %17, %18
  store i64 %sub, ptr %s_remain, align 8
  %19 = load ptr, ptr %buf_writer, align 8
  %buf_size5 = getelementptr inbounds %struct.buf_writer_t, ptr %19, i32 0, i32 3
  %20 = load i64, ptr %buf_size5, align 8
  %21 = load ptr, ptr %buf_writer, align 8
  %buf_end6 = getelementptr inbounds %struct.buf_writer_t, ptr %21, i32 0, i32 4
  %22 = load i64, ptr %buf_end6, align 8
  %sub7 = sub i64 %20, %22
  store i64 %sub7, ptr %buf_remain, align 8
  %23 = load i64, ptr %s_remain, align 8
  %24 = load i64, ptr %buf_remain, align 8
  %cmp8 = icmp ult i64 %23, %24
  br i1 %cmp8, label %cond.true, label %cond.false

cond.true:                                        ; preds = %if.end4
  %25 = load i64, ptr %s_remain, align 8
  br label %cond.end

cond.false:                                       ; preds = %if.end4
  %26 = load i64, ptr %buf_remain, align 8
  br label %cond.end

cond.end:                                         ; preds = %cond.false, %cond.true
  %cond = phi i64 [ %25, %cond.true ], [ %26, %cond.false ]
  store i64 %cond, ptr %n, align 8
  %27 = load ptr, ptr %buf_writer, align 8
  %buf9 = getelementptr inbounds %struct.buf_writer_t, ptr %27, i32 0, i32 2
  %28 = load ptr, ptr %buf9, align 8
  %29 = load ptr, ptr %buf_writer, align 8
  %buf_end10 = getelementptr inbounds %struct.buf_writer_t, ptr %29, i32 0, i32 4
  %30 = load i64, ptr %buf_end10, align 8
  %add.ptr = getelementptr inbounds i8, ptr %28, i64 %30
  %31 = load ptr, ptr %s.addr, align 8
  %32 = load i64, ptr %i, align 8
  %add.ptr11 = getelementptr inbounds i8, ptr %31, i64 %32
  %33 = load i64, ptr %n, align 8
  call void @llvm.memcpy.p0.p0.i64(ptr align 1 %add.ptr, ptr align 1 %add.ptr11, i64 %33, i1 false)
  %34 = load i64, ptr %n, align 8
  %35 = load ptr, ptr %buf_writer, align 8
  %buf_end12 = getelementptr inbounds %struct.buf_writer_t, ptr %35, i32 0, i32 4
  %36 = load i64, ptr %buf_end12, align 8
  %add = add i64 %36, %34
  store i64 %add, ptr %buf_end12, align 8
  %37 = load ptr, ptr %buf_writer, align 8
  call void @buf_writer_assert(ptr noundef %37)
  br label %for.inc

for.inc:                                          ; preds = %cond.end
  %38 = load i64, ptr %n, align 8
  %39 = load i64, ptr %i, align 8
  %add13 = add i64 %39, %38
  store i64 %add13, ptr %i, align 8
  br label %for.cond, !llvm.loop !5

for.end:                                          ; preds = %for.cond
  br label %do.body

do.body:                                          ; preds = %for.end
  br label %do.end

do.end:                                           ; preds = %do.body, %if.then
  ret void
}