; Function Attrs: nounwind uwtable
define hidden void @buf_writer_cb(ptr nocapture noundef %buf_writer_arg, ptr noundef %s) local_unnamed_addr #0 {
entry:
  %buf = getelementptr inbounds i8, ptr %buf_writer_arg, i64 16
  %0 = load ptr, ptr %buf, align 8
  %cmp = icmp eq ptr %0, null
  br i1 %cmp, label %if.then, label %if.end

if.then:                                          ; preds = %entry
  %1 = load ptr, ptr %buf_writer_arg, align 8
  %cbopaque = getelementptr inbounds i8, ptr %buf_writer_arg, i64 8
  %2 = load ptr, ptr %cbopaque, align 8
  tail call void %1(ptr noundef %2, ptr noundef %s) #7
  br label %do.end

if.end:                                           ; preds = %entry
  %call = tail call i64 @strlen(ptr noundef nonnull dereferenceable(1) %s) #8
  %cmp123.not = icmp eq i64 %call, 0
  br i1 %cmp123.not, label %do.end, label %for.body.lr.ph

for.body.lr.ph:                                   ; preds = %if.end
  %buf_end = getelementptr inbounds i8, ptr %buf_writer_arg, i64 32
  %buf_size = getelementptr inbounds i8, ptr %buf_writer_arg, i64 24
  %cbopaque.i = getelementptr inbounds i8, ptr %buf_writer_arg, i64 8
  %.pre = load i64, ptr %buf_end, align 8
  br label %for.body

for.body:                                         ; preds = %for.body.lr.ph, %if.end4
  %3 = phi i64 [ %.pre, %for.body.lr.ph ], [ %add, %if.end4 ]
  %i.024 = phi i64 [ 0, %for.body.lr.ph ], [ %add13, %if.end4 ]
  %4 = load i64, ptr %buf_size, align 8
  %cmp2 = icmp eq i64 %3, %4
  %.pre27 = load ptr, ptr %buf, align 8
  br i1 %cmp2, label %if.then3, label %if.end4

if.then3:                                         ; preds = %for.body
  %cmp.i = icmp eq ptr %.pre27, null
  br i1 %cmp.i, label %if.end4, label %if.end.i

if.end.i:                                         ; preds = %if.then3
  %arrayidx.i = getelementptr inbounds i8, ptr %.pre27, i64 %3
  store i8 0, ptr %arrayidx.i, align 1
  %5 = load ptr, ptr %buf_writer_arg, align 8
  %6 = load ptr, ptr %cbopaque.i, align 8
  %7 = load ptr, ptr %buf, align 8
  tail call void %5(ptr noundef %6, ptr noundef %7) #7
  store i64 0, ptr %buf_end, align 8
  %.pre25 = load i64, ptr %buf_size, align 8
  %.pre26 = load ptr, ptr %buf, align 8
  br label %if.end4

if.end4:                                          ; preds = %if.end.i, %if.then3, %for.body
  %8 = phi ptr [ %.pre26, %if.end.i ], [ null, %if.then3 ], [ %.pre27, %for.body ]
  %9 = phi i64 [ 0, %if.end.i ], [ %3, %if.then3 ], [ %3, %for.body ]
  %10 = phi i64 [ %.pre25, %if.end.i ], [ %3, %if.then3 ], [ %4, %for.body ]
  %sub = sub i64 %call, %i.024
  %sub7 = sub i64 %10, %9
  %cond = tail call i64 @llvm.umin.i64(i64 %sub, i64 %sub7)
  %add.ptr = getelementptr inbounds i8, ptr %8, i64 %9
  %add.ptr11 = getelementptr inbounds i8, ptr %s, i64 %i.024
  tail call void @llvm.memcpy.p0.p0.i64(ptr align 1 %add.ptr, ptr align 1 %add.ptr11, i64 %cond, i1 false)
  %11 = load i64, ptr %buf_end, align 8
  %add = add i64 %11, %cond
  store i64 %add, ptr %buf_end, align 8
  %add13 = add i64 %cond, %i.024
  %cmp1 = icmp ult i64 %add13, %call
  br i1 %cmp1, label %for.body, label %do.end, !llvm.loop !6

do.end:                                           ; preds = %if.end4, %if.end, %if.then
  ret void
}